; ModuleID = '29/1894.c'
source_filename = "29/1894.c"
target datalayout = "e-m:e-p270:32:32-p271:32:32-p272:64:64-i64:64-f80:128-n8:16:32:64-S128"
target triple = "x86_64-pc-linux-gnu"

@.str = private unnamed_addr constant [3 x i8] c"%d\00", align 1
@.str.1 = private unnamed_addr constant [6 x i8] c"%.3f\0A\00", align 1

; Function Attrs: noinline nounwind uwtable
define dso_local i32 @main() #0 {
  %1 = alloca i32, align 4
  %2 = alloca i32, align 4
  %3 = alloca i32, align 4
  %4 = alloca i32, align 4
  %5 = alloca i32, align 4
  %6 = alloca float, align 4
  %7 = alloca float, align 4
  %8 = alloca float, align 4
  %9 = alloca float, align 4
  store i32 0, i32* %1, align 4
  store i32 1, i32* %3, align 4
  %10 = call i32 (i8*, ...) @__isoc99_scanf(i8* getelementptr inbounds ([3 x i8], [3 x i8]* @.str, i64 0, i64 0), i32* %2)
  br label %11

11:                                               ; preds = %37, %0
  %12 = load i32, i32* %3, align 4
  %13 = load i32, i32* %2, align 4
  %14 = icmp sle i32 %12, %13
  br i1 %14, label %15, label %43

15:                                               ; preds = %11
  %16 = call i32 (i8*, ...) @__isoc99_scanf(i8* getelementptr inbounds ([3 x i8], [3 x i8]* @.str, i64 0, i64 0), i32* %4)
  store float 1.000000e+00, float* %8, align 4
  store float 2.000000e+00, float* %9, align 4
  store i32 1, i32* %5, align 4
  store float 0.000000e+00, float* %6, align 4
  store float 2.000000e+00, float* %7, align 4
  br label %17

17:                                               ; preds = %21, %15
  %18 = load i32, i32* %5, align 4
  %19 = load i32, i32* %4, align 4
  %20 = icmp sle i32 %18, %19
  br i1 %20, label %21, label %37

21:                                               ; preds = %17
  %22 = load float, float* %6, align 4
  %23 = load float, float* %7, align 4
  %24 = fadd float %22, %23
  store float %24, float* %6, align 4
  %25 = load float, float* %8, align 4
  %26 = load float, float* %9, align 4
  %27 = fadd float %25, %26
  store float %27, float* %9, align 4
  %28 = load float, float* %8, align 4
  %29 = fneg float %28
  %30 = load float, float* %9, align 4
  %31 = fadd float %29, %30
  store float %31, float* %8, align 4
  %32 = load float, float* %9, align 4
  %33 = load float, float* %8, align 4
  %34 = fdiv float %32, %33
  store float %34, float* %7, align 4
  %35 = load i32, i32* %5, align 4
  %36 = add nsw i32 %35, 1
  store i32 %36, i32* %5, align 4
  br label %17

37:                                               ; preds = %17
  %38 = load float, float* %6, align 4
  %39 = fpext float %38 to double
  %40 = call i32 (i8*, ...) @printf(i8* getelementptr inbounds ([6 x i8], [6 x i8]* @.str.1, i64 0, i64 0), double %39)
  %41 = load i32, i32* %3, align 4
  %42 = add nsw i32 %41, 1
  store i32 %42, i32* %3, align 4
  br label %11

43:                                               ; preds = %11
  ret i32 0
}

declare dso_local i32 @__isoc99_scanf(i8*, ...) #1

declare dso_local i32 @printf(i8*, ...) #1


!llvm.module.flags = !{!0}
!llvm.ident = !{!1}

!0 = !{i32 1, !"wchar_size", i32 4}
!1 = !{!"clang version 10.0.0-4ubuntu1 "}
